target datalayout = "e-m:e-p270:32:32-p271:32:32-p272:64:64-i64:64-i128:128-f80:128-n8:16:32:64-S128"
target triple = "x86_64-pc-linux-gnu"

%struct.AVFormatContext = type { ptr, ptr, ptr, ptr, ptr, i32, i32, ptr, i32, ptr, i32, ptr, ptr, i64, i64, i64, i32, i32, i32, i64, i64, ptr, i32, i32, ptr, i32, i32, i32, i32, ptr, i64, i32, i32, %struct.AVIOInterruptCB, i32, i32, i32, i32, i64, i32, i32, i32, i32, i32, i32, i32, i32, i32, i32, i32, i32, i64, i32, i32, i32, i32, i32, ptr, ptr, ptr, ptr, i32, ptr, ptr, ptr, ptr, i32, ptr, ptr, i64, ptr, ptr, ptr, i64 }
%struct.AVIOInterruptCB = type { ptr, ptr }
%struct.ogg = type { ptr, i32, i32, i32, i64, ptr }
%struct.ogg_stream = type { ptr, i32, i32, i32, i32, i32, i32, i32, i64, i64, i64, i64, i64, i64, i32, ptr, i32, i32, i32, [255 x i8], i32, i32, i32, i32, i32, i32, i32, i32, ptr, i64, ptr }

; Function Attrs: nounwind uwtable
define internal i64 @dirac_gptopts(ptr noundef %0, i32 noundef %1, i64 noundef %2, ptr noundef %3) #0 {
  %5 = alloca ptr, align 8
  %6 = alloca i32, align 4
  %7 = alloca i64, align 8
  %8 = alloca ptr, align 8
  %9 = alloca i64, align 8
  %10 = alloca ptr, align 8
  %11 = alloca ptr, align 8
  %12 = alloca i32, align 4
  %13 = alloca i64, align 8
  %14 = alloca i64, align 8
  store ptr %0, ptr %5, align 8, !tbaa !4
  store i32 %1, ptr %6, align 4, !tbaa !9
  store i64 %2, ptr %7, align 8, !tbaa !79
  store ptr %3, ptr %8, align 8, !tbaa !80
  call void @llvm.lifetime.start.p0(i64 8, ptr %9) #5
  %15 = load i64, ptr %7, align 8, !tbaa !79
  store i64 %15, ptr %9, align 8, !tbaa !79
  call void @llvm.lifetime.start.p0(i64 8, ptr %10) #5
  %16 = load ptr, ptr %5, align 8, !tbaa !4
  %17 = getelementptr inbounds nuw %struct.AVFormatContext, ptr %16, i32 0, i32 3
  %18 = load ptr, ptr %17, align 8, !tbaa !11
  store ptr %18, ptr %10, align 8, !tbaa !27
  call void @llvm.lifetime.start.p0(i64 8, ptr %11) #5
  %19 = load ptr, ptr %10, align 8, !tbaa !27
  %20 = getelementptr inbounds nuw %struct.ogg, ptr %19, i32 0, i32 0
  %21 = load ptr, ptr %20, align 8, !tbaa !29
  %22 = load i32, ptr %6, align 4, !tbaa !9
  %23 = sext i32 %22 to i64
  %24 = getelementptr inbounds %struct.ogg_stream, ptr %21, i64 %23
  store ptr %24, ptr %11, align 8, !tbaa !33
  call void @llvm.lifetime.start.p0(i64 4, ptr %12) #5
  %25 = load i64, ptr %9, align 8, !tbaa !79
  %26 = ashr i64 %25, 14
  %27 = and i64 %26, 65280
  %28 = load i64, ptr %9, align 8, !tbaa !79
  %29 = and i64 %28, 255
  %30 = or i64 %27, %29
  %31 = trunc i64 %30 to i32
  store i32 %31, ptr %12, align 4, !tbaa !9
  call void @llvm.lifetime.start.p0(i64 8, ptr %13) #5
  %32 = load i64, ptr %9, align 8, !tbaa !79
  %33 = ashr i64 %32, 31
  store i64 %33, ptr %13, align 8, !tbaa !79
  call void @llvm.lifetime.start.p0(i64 8, ptr %14) #5
  %34 = load i64, ptr %13, align 8, !tbaa !79
  %35 = load i64, ptr %9, align 8, !tbaa !79
  %36 = ashr i64 %35, 9
  %37 = and i64 %36, 8191
  %38 = add nsw i64 %34, %37
  store i64 %38, ptr %14, align 8, !tbaa !79
  %39 = load i32, ptr %12, align 4, !tbaa !9
  %40 = icmp ne i32 %39, 0
  br i1 %40, label %46, label %41

41:                                               ; preds = %4
  %42 = load ptr, ptr %11, align 8, !tbaa !33
  %43 = getelementptr inbounds nuw %struct.ogg_stream, ptr %42, i32 0, i32 5
  %44 = load i32, ptr %43, align 8, !tbaa !82
  %45 = or i32 %44, 1
  store i32 %45, ptr %43, align 8, !tbaa !82
  br label %46

46:                                               ; preds = %41, %4
  %47 = load ptr, ptr %8, align 8, !tbaa !80
  %48 = icmp ne ptr %47, null
  br i1 %48, label %49, label %52

49:                                               ; preds = %46
  %50 = load i64, ptr %13, align 8, !tbaa !79
  %51 = load ptr, ptr %8, align 8, !tbaa !80
  store i64 %50, ptr %51, align 8, !tbaa !79
  br label %52

52:                                               ; preds = %49, %46
  %53 = load i64, ptr %14, align 8, !tbaa !79
  call void @llvm.lifetime.end.p0(i64 8, ptr %14) #5
  call void @llvm.lifetime.end.p0(i64 8, ptr %13) #5
  call void @llvm.lifetime.end.p0(i64 4, ptr %12) #5
  call void @llvm.lifetime.end.p0(i64 8, ptr %11) #5
  call void @llvm.lifetime.end.p0(i64 8, ptr %10) #5
  call void @llvm.lifetime.end.p0(i64 8, ptr %9) #5
  ret i64 %53
}