; Function Attrs: mustprogress nofree norecurse nosync nounwind willreturn memory(readwrite, inaccessiblemem: none) uwtable
define internal range(i64 -4294967296, 4294975487) i64 @dirac_gptopts(ptr noundef readonly captures(none) %0, i32 noundef %1, i64 noundef %2, ptr noundef writeonly captures(address_is_null) %3) #1 {
  %5 = lshr i64 %2, 14
  %6 = and i64 %5, 65280
  %7 = and i64 %2, 255
  %8 = or disjoint i64 %6, %7
  %9 = ashr i64 %2, 31
  %.not = icmp eq i64 %8, 0
  br i1 %.not, label %10, label %18

10:                                               ; preds = %4
  %11 = getelementptr inbounds nuw i8, ptr %0, i64 24
  %12 = load ptr, ptr %11, align 8, !tbaa !4
  %13 = load ptr, ptr %12, align 8, !tbaa !24
  %14 = sext i32 %1 to i64
  %15 = getelementptr inbounds %struct.ogg_stream, ptr %13, i64 %14, i32 5
  %16 = load i32, ptr %15, align 8, !tbaa !72
  %17 = or i32 %16, 1
  store i32 %17, ptr %15, align 8, !tbaa !72
  br label %18

18:                                               ; preds = %10, %4
  %.not14 = icmp eq ptr %3, null
  br i1 %.not14, label %20, label %19

19:                                               ; preds = %18
  store i64 %9, ptr %3, align 8, !tbaa !73
  br label %20

20:                                               ; preds = %19, %18
  %21 = lshr i64 %2, 9
  %22 = and i64 %21, 8191
  %23 = add nsw i64 %22, %9
  ret i64 %23
}